; Function Attrs: nounwind uwtable
define dso_local void @int_mul(ptr dead_on_unwind noalias writable writeonly sret(%struct.Int) align 8 captures(none) initializes((0, 20)) %0, ptr noundef readonly byval(%struct.Int) align 8 captures(none) %1, ptr noundef readonly byval(%struct.Int) align 8 captures(none) %2) local_unnamed_addr #0 {
  %4 = load i64, ptr %1, align 8
  %5 = getelementptr inbounds nuw i8, ptr %1, i64 8
  %6 = load i64, ptr %5, align 8
  %7 = load i64, ptr %2, align 8
  %8 = getelementptr inbounds nuw i8, ptr %2, i64 8
  %9 = load i64, ptr %8, align 8
  %10 = and i64 %6, 4294967295
  %11 = and i64 %9, 4294967295
  %12 = mul nuw i64 %11, %10
  %13 = and i64 %12, 4294967295
  %14 = lshr i64 %12, 32
  %15 = lshr i64 %6, 32
  %16 = mul nuw i64 %11, %15
  %17 = add nuw i64 %14, %16
  %18 = and i64 %17, 4294967295
  %19 = lshr i64 %17, 32
  %20 = lshr i64 %9, 32
  %21 = mul nuw i64 %20, %10
  %22 = add nuw i64 %18, %21
  %23 = mul nuw i64 %20, %15
  %24 = lshr i64 %22, 32
  %25 = shl i64 %22, 32
  %26 = or disjoint i64 %25, %13
  %27 = mul i64 %9, %4
  %28 = mul i64 %7, %6
  %29 = add i64 %27, %28
  %30 = add i64 %29, %23
  %31 = add i64 %30, %19
  %32 = add i64 %31, %24
  %33 = getelementptr inbounds nuw i8, ptr %1, i64 16
  %34 = load i32, ptr %33, align 8
  %35 = tail call { i64, i64 } @i128_extend(i64 %32, i64 %26, i32 noundef %34)
  %36 = extractvalue { i64, i64 } %35, 0
  store i64 %36, ptr %0, align 8
  %37 = getelementptr inbounds nuw i8, ptr %0, i64 8
  %38 = extractvalue { i64, i64 } %35, 1
  store i64 %38, ptr %37, align 8
  %39 = getelementptr inbounds nuw i8, ptr %0, i64 16
  store i32 %34, ptr %39, align 8
  ret void
}